target datalayout = "e-m:e-p270:32:32-p271:32:32-p272:64:64-i64:64-i128:128-f80:128-n8:16:32:64-S128"
target triple = "x86_64-unknown-linux-gnu"

%"class.zmq::ws_decoder_t" = type { %"class.zmq::decoder_base_t", [8 x i8], i8, %"class.zmq::msg_t", i8, i64, i8, i64, i32, [4 x i8] }
%"class.zmq::decoder_base_t" = type { %"class.zmq::i_decoder", { i64, i64 }, ptr, i64, %"class.zmq::shared_message_memory_allocator", ptr }
%"class.zmq::i_decoder" = type { ptr }
%"class.zmq::shared_message_memory_allocator" = type { ptr, i64, i64, ptr, i64 }
%"class.zmq::msg_t" = type { %union.anon }
%union.anon = type { %struct.anon }
%struct.anon = type { ptr, [34 x i8], i8, i8, i32, %"union.zmq::msg_t::group_t" }
%"union.zmq::msg_t::group_t" = type { %struct.anon.1 }
%struct.anon.1 = type { i8, ptr }

; Function Attrs: mustprogress uwtable
define noundef i32 @_ZN3zmq12ws_decoder_t11flags_readyEPKh(ptr noundef nonnull align 8 dereferenceable(208) %this, ptr noundef %read_from_) #0 align 2 {
entry:
  %this.addr = alloca ptr, align 8
  %read_from_.addr = alloca ptr, align 8
  %flags = alloca i8, align 1
  store ptr %this, ptr %this.addr, align 8
  store ptr %read_from_, ptr %read_from_.addr, align 8
  %this1 = load ptr, ptr %this.addr, align 8
  %_must_mask = getelementptr inbounds %"class.zmq::ws_decoder_t", ptr %this1, i32 0, i32 6
  %0 = load i8, ptr %_must_mask, align 8
  %tobool = trunc i8 %0 to i1
  br i1 %tobool, label %if.then, label %if.else

if.then:                                          ; preds = %entry
  %_tmpbuf = getelementptr inbounds %"class.zmq::ws_decoder_t", ptr %this1, i32 0, i32 1
  %arrayidx = getelementptr inbounds [8 x i8], ptr %_tmpbuf, i64 0, i64 0
  %1 = load i8, ptr %arrayidx, align 8
  %conv = zext i8 %1 to i32
  %_mask = getelementptr inbounds %"class.zmq::ws_decoder_t", ptr %this1, i32 0, i32 9
  %arrayidx2 = getelementptr inbounds [4 x i8], ptr %_mask, i64 0, i64 0
  %2 = load i8, ptr %arrayidx2, align 4
  %conv3 = zext i8 %2 to i32
  %xor = xor i32 %conv, %conv3
  %conv4 = trunc i32 %xor to i8
  store i8 %conv4, ptr %flags, align 1
  br label %if.end

if.else:                                          ; preds = %entry
  %_tmpbuf5 = getelementptr inbounds %"class.zmq::ws_decoder_t", ptr %this1, i32 0, i32 1
  %arrayidx6 = getelementptr inbounds [8 x i8], ptr %_tmpbuf5, i64 0, i64 0
  %3 = load i8, ptr %arrayidx6, align 8
  store i8 %3, ptr %flags, align 1
  br label %if.end

if.end:                                           ; preds = %if.else, %if.then
  %4 = load i8, ptr %flags, align 1
  %conv7 = zext i8 %4 to i32
  %and = and i32 %conv7, 1
  %tobool8 = icmp ne i32 %and, 0
  br i1 %tobool8, label %if.then9, label %if.end12

if.then9:                                         ; preds = %if.end
  %_msg_flags = getelementptr inbounds %"class.zmq::ws_decoder_t", ptr %this1, i32 0, i32 2
  %5 = load i8, ptr %_msg_flags, align 8
  %conv10 = zext i8 %5 to i32
  %or = or i32 %conv10, 1
  %conv11 = trunc i32 %or to i8
  store i8 %conv11, ptr %_msg_flags, align 8
  br label %if.end12

if.end12:                                         ; preds = %if.then9, %if.end
  %6 = load i8, ptr %flags, align 1
  %conv13 = zext i8 %6 to i32
  %and14 = and i32 %conv13, 2
  %tobool15 = icmp ne i32 %and14, 0
  br i1 %tobool15, label %if.then16, label %if.end21

if.then16:                                        ; preds = %if.end12
  %_msg_flags17 = getelementptr inbounds %"class.zmq::ws_decoder_t", ptr %this1, i32 0, i32 2
  %7 = load i8, ptr %_msg_flags17, align 8
  %conv18 = zext i8 %7 to i32
  %or19 = or i32 %conv18, 2
  %conv20 = trunc i32 %or19 to i8
  store i8 %conv20, ptr %_msg_flags17, align 8
  br label %if.end21

if.end21:                                         ; preds = %if.then16, %if.end12
  %_size = getelementptr inbounds %"class.zmq::ws_decoder_t", ptr %this1, i32 0, i32 7
  %8 = load i64, ptr %_size, align 8
  %dec = add i64 %8, -1
  store i64 %dec, ptr %_size, align 8
  %9 = load ptr, ptr %read_from_.addr, align 8
  %call = call noundef i32 @_ZN3zmq12ws_decoder_t10size_readyEPKh(ptr noundef nonnull align 8 dereferenceable(208) %this1, ptr noundef %9)
  ret i32 %call
}