; Function Attrs: mustprogress uwtable
define noundef i32 @_ZN3zmq12ws_decoder_t11flags_readyEPKh(ptr noundef nonnull align 8 dereferenceable(208) %this, ptr noundef %read_from_) #0 align 2 {
entry:
  %_must_mask = getelementptr inbounds i8, ptr %this, i64 184
  %0 = load i8, ptr %_must_mask, align 8
  %1 = and i8 %0, 1
  %tobool.not = icmp eq i8 %1, 0
  %_tmpbuf = getelementptr inbounds i8, ptr %this, i64 88
  %2 = load i8, ptr %_tmpbuf, align 8
  %_mask = getelementptr inbounds i8, ptr %this, i64 204
  %3 = load i8, ptr %_mask, align 4
  %xor2 = select i1 %tobool.not, i8 0, i8 %3
  %flags.0 = xor i8 %xor2, %2
  %conv7 = zext i8 %flags.0 to i32
  %and = and i32 %conv7, 1
  %tobool8.not = icmp eq i32 %and, 0
  br i1 %tobool8.not, label %if.end12, label %if.then9

if.then9:                                         ; preds = %entry
  %_msg_flags = getelementptr inbounds i8, ptr %this, i64 96
  %4 = load i8, ptr %_msg_flags, align 8
  %5 = or i8 %4, 1
  store i8 %5, ptr %_msg_flags, align 8
  br label %if.end12

if.end12:                                         ; preds = %if.then9, %entry
  %and14 = and i32 %conv7, 2
  %tobool15.not = icmp eq i32 %and14, 0
  br i1 %tobool15.not, label %if.end21, label %if.then16

if.then16:                                        ; preds = %if.end12
  %_msg_flags17 = getelementptr inbounds i8, ptr %this, i64 96
  %6 = load i8, ptr %_msg_flags17, align 8
  %7 = or i8 %6, 2
  store i8 %7, ptr %_msg_flags17, align 8
  br label %if.end21

if.end21:                                         ; preds = %if.then16, %if.end12
  %_size = getelementptr inbounds i8, ptr %this, i64 192
  %8 = load i64, ptr %_size, align 8
  %dec = add i64 %8, -1
  store i64 %dec, ptr %_size, align 8
  %call = tail call noundef i32 @_ZN3zmq12ws_decoder_t10size_readyEPKh(ptr noundef nonnull align 8 dereferenceable(208) %this, ptr noundef %read_from_), !range !4
  ret i32 %call
}